; Function Attrs: mustprogress uwtable
define void @_ZN7Imf_3_47KeyCode16setPerfsPerCountEi(ptr noundef nonnull writeonly align 4 captures(none) dereferenceable(28) %0, i32 noundef %1) local_unnamed_addr #0 align 2 personality ptr @__gxx_personality_v0 {
  %3 = add i32 %1, -121
  %or.cond = icmp ult i32 %3, -101
  br i1 %or.cond, label %4, label %9

4:                                                ; preds = %2
  %5 = tail call ptr @__cxa_allocate_exception(i64 72) #6
  invoke void @_ZN7Iex_3_46ArgExcC1EPKc(ptr noundef nonnull align 8 dereferenceable(72) %5, ptr noundef nonnull @.str.6)
          to label %6 unwind label %7

6:                                                ; preds = %4
  tail call void @__cxa_throw(ptr nonnull %5, ptr nonnull @_ZTIN7Iex_3_46ArgExcE, ptr nonnull @_ZN7Iex_3_46ArgExcD1Ev) #7
  unreachable

7:                                                ; preds = %4
  %8 = landingpad { ptr, i32 }
          cleanup
  tail call void @__cxa_free_exception(ptr nonnull %5) #6
  resume { ptr, i32 } %8

9:                                                ; preds = %2
  %10 = getelementptr inbounds nuw i8, ptr %0, i64 24
  store i32 %1, ptr %10, align 4, !tbaa !13
  ret void
}